target datalayout = "e-m:e-p270:32:32-p271:32:32-p272:64:64-i64:64-i128:128-f80:128-n8:16:32:64-S128"
target triple = "x86_64-pc-linux-gnu"

%"class.colvarmodule::quaternion" = type { double, double, double, double }
%"class.colvarmodule::rotation" = type { %"class.colvarmodule::rmatrix", [4 x [4 x double]], [4 x double], [4 x [4 x double]], [4 x [4 x double]], i8, %"class.colvarmodule::quaternion", %"class.colvarmodule::quaternion", ptr }
%"class.colvarmodule::rmatrix" = type { double, double, double, double, double, double, double, double, double }

; Function Attrs: mustprogress nounwind uwtable
define void @_ZN12colvarmodule8rotation22compute_overlap_matrixEv(ptr noundef nonnull align 8 dereferenceable(568) %0) #2 align 2 {
  %2 = alloca ptr, align 8
  store ptr %0, ptr %2, align 8, !tbaa !127
  %3 = load ptr, ptr %2, align 8
  %4 = getelementptr inbounds nuw %"class.colvarmodule::rotation", ptr %3, i32 0, i32 0
  %5 = getelementptr inbounds nuw %"class.colvarmodule::rmatrix", ptr %4, i32 0, i32 0
  %6 = load double, ptr %5, align 8, !tbaa !148
  %7 = getelementptr inbounds nuw %"class.colvarmodule::rotation", ptr %3, i32 0, i32 0
  %8 = getelementptr inbounds nuw %"class.colvarmodule::rmatrix", ptr %7, i32 0, i32 4
  %9 = load double, ptr %8, align 8, !tbaa !152
  %10 = fadd double %6, %9
  %11 = getelementptr inbounds nuw %"class.colvarmodule::rotation", ptr %3, i32 0, i32 0
  %12 = getelementptr inbounds nuw %"class.colvarmodule::rmatrix", ptr %11, i32 0, i32 8
  %13 = load double, ptr %12, align 8, !tbaa !156
  %14 = fadd double %10, %13
  %15 = getelementptr inbounds nuw %"class.colvarmodule::rotation", ptr %3, i32 0, i32 1
  %16 = getelementptr inbounds [4 x [4 x double]], ptr %15, i64 0, i64 0
  %17 = getelementptr inbounds [4 x double], ptr %16, i64 0, i64 0
  store double %14, ptr %17, align 8, !tbaa !38
  %18 = getelementptr inbounds nuw %"class.colvarmodule::rotation", ptr %3, i32 0, i32 0
  %19 = getelementptr inbounds nuw %"class.colvarmodule::rmatrix", ptr %18, i32 0, i32 5
  %20 = load double, ptr %19, align 8, !tbaa !153
  %21 = getelementptr inbounds nuw %"class.colvarmodule::rotation", ptr %3, i32 0, i32 0
  %22 = getelementptr inbounds nuw %"class.colvarmodule::rmatrix", ptr %21, i32 0, i32 7
  %23 = load double, ptr %22, align 8, !tbaa !155
  %24 = fsub double %20, %23
  %25 = getelementptr inbounds nuw %"class.colvarmodule::rotation", ptr %3, i32 0, i32 1
  %26 = getelementptr inbounds [4 x [4 x double]], ptr %25, i64 0, i64 1
  %27 = getelementptr inbounds [4 x double], ptr %26, i64 0, i64 0
  store double %24, ptr %27, align 8, !tbaa !38
  %28 = getelementptr inbounds nuw %"class.colvarmodule::rotation", ptr %3, i32 0, i32 1
  %29 = getelementptr inbounds [4 x [4 x double]], ptr %28, i64 0, i64 1
  %30 = getelementptr inbounds [4 x double], ptr %29, i64 0, i64 0
  %31 = load double, ptr %30, align 8, !tbaa !38
  %32 = getelementptr inbounds nuw %"class.colvarmodule::rotation", ptr %3, i32 0, i32 1
  %33 = getelementptr inbounds [4 x [4 x double]], ptr %32, i64 0, i64 0
  %34 = getelementptr inbounds [4 x double], ptr %33, i64 0, i64 1
  store double %31, ptr %34, align 8, !tbaa !38
  %35 = getelementptr inbounds nuw %"class.colvarmodule::rotation", ptr %3, i32 0, i32 0
  %36 = getelementptr inbounds nuw %"class.colvarmodule::rmatrix", ptr %35, i32 0, i32 2
  %37 = load double, ptr %36, align 8, !tbaa !150
  %38 = fneg double %37
  %39 = getelementptr inbounds nuw %"class.colvarmodule::rotation", ptr %3, i32 0, i32 0
  %40 = getelementptr inbounds nuw %"class.colvarmodule::rmatrix", ptr %39, i32 0, i32 6
  %41 = load double, ptr %40, align 8, !tbaa !154
  %42 = fadd double %38, %41
  %43 = getelementptr inbounds nuw %"class.colvarmodule::rotation", ptr %3, i32 0, i32 1
  %44 = getelementptr inbounds [4 x [4 x double]], ptr %43, i64 0, i64 2
  %45 = getelementptr inbounds [4 x double], ptr %44, i64 0, i64 0
  store double %42, ptr %45, align 8, !tbaa !38
  %46 = getelementptr inbounds nuw %"class.colvarmodule::rotation", ptr %3, i32 0, i32 1
  %47 = getelementptr inbounds [4 x [4 x double]], ptr %46, i64 0, i64 2
  %48 = getelementptr inbounds [4 x double], ptr %47, i64 0, i64 0
  %49 = load double, ptr %48, align 8, !tbaa !38
  %50 = getelementptr inbounds nuw %"class.colvarmodule::rotation", ptr %3, i32 0, i32 1
  %51 = getelementptr inbounds [4 x [4 x double]], ptr %50, i64 0, i64 0
  %52 = getelementptr inbounds [4 x double], ptr %51, i64 0, i64 2
  store double %49, ptr %52, align 8, !tbaa !38
  %53 = getelementptr inbounds nuw %"class.colvarmodule::rotation", ptr %3, i32 0, i32 0
  %54 = getelementptr inbounds nuw %"class.colvarmodule::rmatrix", ptr %53, i32 0, i32 1
  %55 = load double, ptr %54, align 8, !tbaa !149
  %56 = getelementptr inbounds nuw %"class.colvarmodule::rotation", ptr %3, i32 0, i32 0
  %57 = getelementptr inbounds nuw %"class.colvarmodule::rmatrix", ptr %56, i32 0, i32 3
  %58 = load double, ptr %57, align 8, !tbaa !151
  %59 = fsub double %55, %58
  %60 = getelementptr inbounds nuw %"class.colvarmodule::rotation", ptr %3, i32 0, i32 1
  %61 = getelementptr inbounds [4 x [4 x double]], ptr %60, i64 0, i64 3
  %62 = getelementptr inbounds [4 x double], ptr %61, i64 0, i64 0
  store double %59, ptr %62, align 8, !tbaa !38
  %63 = getelementptr inbounds nuw %"class.colvarmodule::rotation", ptr %3, i32 0, i32 1
  %64 = getelementptr inbounds [4 x [4 x double]], ptr %63, i64 0, i64 3
  %65 = getelementptr inbounds [4 x double], ptr %64, i64 0, i64 0
  %66 = load double, ptr %65, align 8, !tbaa !38
  %67 = getelementptr inbounds nuw %"class.colvarmodule::rotation", ptr %3, i32 0, i32 1
  %68 = getelementptr inbounds [4 x [4 x double]], ptr %67, i64 0, i64 0
  %69 = getelementptr inbounds [4 x double], ptr %68, i64 0, i64 3
  store double %66, ptr %69, align 8, !tbaa !38
  %70 = getelementptr inbounds nuw %"class.colvarmodule::rotation", ptr %3, i32 0, i32 0
  %71 = getelementptr inbounds nuw %"class.colvarmodule::rmatrix", ptr %70, i32 0, i32 0
  %72 = load double, ptr %71, align 8, !tbaa !148
  %73 = getelementptr inbounds nuw %"class.colvarmodule::rotation", ptr %3, i32 0, i32 0
  %74 = getelementptr inbounds nuw %"class.colvarmodule::rmatrix", ptr %73, i32 0, i32 4
  %75 = load double, ptr %74, align 8, !tbaa !152
  %76 = fsub double %72, %75
  %77 = getelementptr inbounds nuw %"class.colvarmodule::rotation", ptr %3, i32 0, i32 0
  %78 = getelementptr inbounds nuw %"class.colvarmodule::rmatrix", ptr %77, i32 0, i32 8
  %79 = load double, ptr %78, align 8, !tbaa !156
  %80 = fsub double %76, %79
  %81 = getelementptr inbounds nuw %"class.colvarmodule::rotation", ptr %3, i32 0, i32 1
  %82 = getelementptr inbounds [4 x [4 x double]], ptr %81, i64 0, i64 1
  %83 = getelementptr inbounds [4 x double], ptr %82, i64 0, i64 1
  store double %80, ptr %83, align 8, !tbaa !38
  %84 = getelementptr inbounds nuw %"class.colvarmodule::rotation", ptr %3, i32 0, i32 0
  %85 = getelementptr inbounds nuw %"class.colvarmodule::rmatrix", ptr %84, i32 0, i32 1
  %86 = load double, ptr %85, align 8, !tbaa !149
  %87 = getelementptr inbounds nuw %"class.colvarmodule::rotation", ptr %3, i32 0, i32 0
  %88 = getelementptr inbounds nuw %"class.colvarmodule::rmatrix", ptr %87, i32 0, i32 3
  %89 = load double, ptr %88, align 8, !tbaa !151
  %90 = fadd double %86, %89
  %91 = getelementptr inbounds nuw %"class.colvarmodule::rotation", ptr %3, i32 0, i32 1
  %92 = getelementptr inbounds [4 x [4 x double]], ptr %91, i64 0, i64 2
  %93 = getelementptr inbounds [4 x double], ptr %92, i64 0, i64 1
  store double %90, ptr %93, align 8, !tbaa !38
  %94 = getelementptr inbounds nuw %"class.colvarmodule::rotation", ptr %3, i32 0, i32 1
  %95 = getelementptr inbounds [4 x [4 x double]], ptr %94, i64 0, i64 2
  %96 = getelementptr inbounds [4 x double], ptr %95, i64 0, i64 1
  %97 = load double, ptr %96, align 8, !tbaa !38
  %98 = getelementptr inbounds nuw %"class.colvarmodule::rotation", ptr %3, i32 0, i32 1
  %99 = getelementptr inbounds [4 x [4 x double]], ptr %98, i64 0, i64 1
  %100 = getelementptr inbounds [4 x double], ptr %99, i64 0, i64 2
  store double %97, ptr %100, align 8, !tbaa !38
  %101 = getelementptr inbounds nuw %"class.colvarmodule::rotation", ptr %3, i32 0, i32 0
  %102 = getelementptr inbounds nuw %"class.colvarmodule::rmatrix", ptr %101, i32 0, i32 2
  %103 = load double, ptr %102, align 8, !tbaa !150
  %104 = getelementptr inbounds nuw %"class.colvarmodule::rotation", ptr %3, i32 0, i32 0
  %105 = getelementptr inbounds nuw %"class.colvarmodule::rmatrix", ptr %104, i32 0, i32 6
  %106 = load double, ptr %105, align 8, !tbaa !154
  %107 = fadd double %103, %106
  %108 = getelementptr inbounds nuw %"class.colvarmodule::rotation", ptr %3, i32 0, i32 1
  %109 = getelementptr inbounds [4 x [4 x double]], ptr %108, i64 0, i64 3
  %110 = getelementptr inbounds [4 x double], ptr %109, i64 0, i64 1
  store double %107, ptr %110, align 8, !tbaa !38
  %111 = getelementptr inbounds nuw %"class.colvarmodule::rotation", ptr %3, i32 0, i32 1
  %112 = getelementptr inbounds [4 x [4 x double]], ptr %111, i64 0, i64 3
  %113 = getelementptr inbounds [4 x double], ptr %112, i64 0, i64 1
  %114 = load double, ptr %113, align 8, !tbaa !38
  %115 = getelementptr inbounds nuw %"class.colvarmodule::rotation", ptr %3, i32 0, i32 1
  %116 = getelementptr inbounds [4 x [4 x double]], ptr %115, i64 0, i64 1
  %117 = getelementptr inbounds [4 x double], ptr %116, i64 0, i64 3
  store double %114, ptr %117, align 8, !tbaa !38
  %118 = getelementptr inbounds nuw %"class.colvarmodule::rotation", ptr %3, i32 0, i32 0
  %119 = getelementptr inbounds nuw %"class.colvarmodule::rmatrix", ptr %118, i32 0, i32 0
  %120 = load double, ptr %119, align 8, !tbaa !148
  %121 = fneg double %120
  %122 = getelementptr inbounds nuw %"class.colvarmodule::rotation", ptr %3, i32 0, i32 0
  %123 = getelementptr inbounds nuw %"class.colvarmodule::rmatrix", ptr %122, i32 0, i32 4
  %124 = load double, ptr %123, align 8, !tbaa !152
  %125 = fadd double %121, %124
  %126 = getelementptr inbounds nuw %"class.colvarmodule::rotation", ptr %3, i32 0, i32 0
  %127 = getelementptr inbounds nuw %"class.colvarmodule::rmatrix", ptr %126, i32 0, i32 8
  %128 = load double, ptr %127, align 8, !tbaa !156
  %129 = fsub double %125, %128
  %130 = getelementptr inbounds nuw %"class.colvarmodule::rotation", ptr %3, i32 0, i32 1
  %131 = getelementptr inbounds [4 x [4 x double]], ptr %130, i64 0, i64 2
  %132 = getelementptr inbounds [4 x double], ptr %131, i64 0, i64 2
  store double %129, ptr %132, align 8, !tbaa !38
  %133 = getelementptr inbounds nuw %"class.colvarmodule::rotation", ptr %3, i32 0, i32 0
  %134 = getelementptr inbounds nuw %"class.colvarmodule::rmatrix", ptr %133, i32 0, i32 5
  %135 = load double, ptr %134, align 8, !tbaa !153
  %136 = getelementptr inbounds nuw %"class.colvarmodule::rotation", ptr %3, i32 0, i32 0
  %137 = getelementptr inbounds nuw %"class.colvarmodule::rmatrix", ptr %136, i32 0, i32 7
  %138 = load double, ptr %137, align 8, !tbaa !155
  %139 = fadd double %135, %138
  %140 = getelementptr inbounds nuw %"class.colvarmodule::rotation", ptr %3, i32 0, i32 1
  %141 = getelementptr inbounds [4 x [4 x double]], ptr %140, i64 0, i64 3
  %142 = getelementptr inbounds [4 x double], ptr %141, i64 0, i64 2
  store double %139, ptr %142, align 8, !tbaa !38
  %143 = getelementptr inbounds nuw %"class.colvarmodule::rotation", ptr %3, i32 0, i32 1
  %144 = getelementptr inbounds [4 x [4 x double]], ptr %143, i64 0, i64 3
  %145 = getelementptr inbounds [4 x double], ptr %144, i64 0, i64 2
  %146 = load double, ptr %145, align 8, !tbaa !38
  %147 = getelementptr inbounds nuw %"class.colvarmodule::rotation", ptr %3, i32 0, i32 1
  %148 = getelementptr inbounds [4 x [4 x double]], ptr %147, i64 0, i64 2
  %149 = getelementptr inbounds [4 x double], ptr %148, i64 0, i64 3
  store double %146, ptr %149, align 8, !tbaa !38
  %150 = getelementptr inbounds nuw %"class.colvarmodule::rotation", ptr %3, i32 0, i32 0
  %151 = getelementptr inbounds nuw %"class.colvarmodule::rmatrix", ptr %150, i32 0, i32 0
  %152 = load double, ptr %151, align 8, !tbaa !148
  %153 = fneg double %152
  %154 = getelementptr inbounds nuw %"class.colvarmodule::rotation", ptr %3, i32 0, i32 0
  %155 = getelementptr inbounds nuw %"class.colvarmodule::rmatrix", ptr %154, i32 0, i32 4
  %156 = load double, ptr %155, align 8, !tbaa !152
  %157 = fsub double %153, %156
  %158 = getelementptr inbounds nuw %"class.colvarmodule::rotation", ptr %3, i32 0, i32 0
  %159 = getelementptr inbounds nuw %"class.colvarmodule::rmatrix", ptr %158, i32 0, i32 8
  %160 = load double, ptr %159, align 8, !tbaa !156
  %161 = fadd double %157, %160
  %162 = getelementptr inbounds nuw %"class.colvarmodule::rotation", ptr %3, i32 0, i32 1
  %163 = getelementptr inbounds [4 x [4 x double]], ptr %162, i64 0, i64 3
  %164 = getelementptr inbounds [4 x double], ptr %163, i64 0, i64 3
  store double %161, ptr %164, align 8, !tbaa !38
  ret void
}