; Function Attrs: mustprogress nofree norecurse nosync nounwind willreturn memory(argmem: readwrite) uwtable
define void @_ZN12colvarmodule8rotation22compute_overlap_matrixEv(ptr noundef nonnull align 8 captures(none) dereferenceable(568) initializes((72, 200)) %0) local_unnamed_addr #11 align 2 {
  %2 = load double, ptr %0, align 8, !tbaa !86
  %3 = getelementptr inbounds nuw i8, ptr %0, i64 32
  %4 = load double, ptr %3, align 8, !tbaa !79
  %5 = fadd double %2, %4
  %6 = getelementptr inbounds nuw i8, ptr %0, i64 64
  %7 = load double, ptr %6, align 8, !tbaa !83
  %8 = fadd double %5, %7
  %9 = getelementptr inbounds nuw i8, ptr %0, i64 72
  store double %8, ptr %9, align 8, !tbaa !67
  %10 = getelementptr inbounds nuw i8, ptr %0, i64 40
  %11 = load double, ptr %10, align 8, !tbaa !80
  %12 = getelementptr inbounds nuw i8, ptr %0, i64 56
  %13 = load double, ptr %12, align 8, !tbaa !82
  %14 = fsub double %11, %13
  %15 = getelementptr inbounds nuw i8, ptr %0, i64 104
  store double %14, ptr %15, align 8, !tbaa !67
  %16 = getelementptr inbounds nuw i8, ptr %0, i64 80
  store double %14, ptr %16, align 8, !tbaa !67
  %17 = getelementptr inbounds nuw i8, ptr %0, i64 16
  %18 = load double, ptr %17, align 8, !tbaa !77
  %19 = getelementptr inbounds nuw i8, ptr %0, i64 48
  %20 = load double, ptr %19, align 8, !tbaa !81
  %21 = fsub double %20, %18
  %22 = getelementptr inbounds nuw i8, ptr %0, i64 136
  store double %21, ptr %22, align 8, !tbaa !67
  %23 = getelementptr inbounds nuw i8, ptr %0, i64 88
  store double %21, ptr %23, align 8, !tbaa !67
  %24 = getelementptr inbounds nuw i8, ptr %0, i64 8
  %25 = load double, ptr %24, align 8, !tbaa !76
  %26 = getelementptr inbounds nuw i8, ptr %0, i64 24
  %27 = load double, ptr %26, align 8, !tbaa !78
  %28 = fsub double %25, %27
  %29 = getelementptr inbounds nuw i8, ptr %0, i64 168
  store double %28, ptr %29, align 8, !tbaa !67
  %30 = getelementptr inbounds nuw i8, ptr %0, i64 96
  store double %28, ptr %30, align 8, !tbaa !67
  %31 = fsub double %2, %4
  %32 = fsub double %31, %7
  %33 = getelementptr inbounds nuw i8, ptr %0, i64 112
  store double %32, ptr %33, align 8, !tbaa !67
  %34 = fadd double %25, %27
  %35 = getelementptr inbounds nuw i8, ptr %0, i64 144
  store double %34, ptr %35, align 8, !tbaa !67
  %36 = getelementptr inbounds nuw i8, ptr %0, i64 120
  store double %34, ptr %36, align 8, !tbaa !67
  %37 = fadd double %18, %20
  %38 = getelementptr inbounds nuw i8, ptr %0, i64 176
  store double %37, ptr %38, align 8, !tbaa !67
  %39 = getelementptr inbounds nuw i8, ptr %0, i64 128
  store double %37, ptr %39, align 8, !tbaa !67
  %40 = fsub double %4, %2
  %41 = fsub double %40, %7
  %42 = getelementptr inbounds nuw i8, ptr %0, i64 152
  store double %41, ptr %42, align 8, !tbaa !67
  %43 = fadd double %11, %13
  %44 = getelementptr inbounds nuw i8, ptr %0, i64 184
  store double %43, ptr %44, align 8, !tbaa !67
  %45 = getelementptr inbounds nuw i8, ptr %0, i64 160
  store double %43, ptr %45, align 8, !tbaa !67
  %46 = fneg double %2
  %47 = fsub double %46, %4
  %48 = fadd double %47, %7
  %49 = getelementptr inbounds nuw i8, ptr %0, i64 192
  store double %48, ptr %49, align 8, !tbaa !67
  ret void
}